; Function Attrs: mustprogress nounwind uwtable
define hidden void @_ZNK24udivModI_rReg_divmodNode4emitEP17C2_MacroAssemblerP13PhaseRegAlloc(ptr noundef nonnull align 8 dereferenceable(96) %0, ptr noundef %1, ptr noundef %2) unnamed_addr #3 align 2 {
  %4 = getelementptr inbounds i8, ptr %0, i64 72
  %5 = load ptr, ptr %4, align 8
  %6 = load ptr, ptr %5, align 8
  %7 = getelementptr inbounds i8, ptr %6, i64 8
  %8 = load ptr, ptr %7, align 8
  %9 = tail call noundef i32 %8(ptr noundef nonnull align 8 dereferenceable(8) %5) #23
  %10 = add i32 %9, 1
  %11 = getelementptr inbounds i8, ptr %0, i64 80
  %12 = load ptr, ptr %11, align 8
  %13 = load ptr, ptr %12, align 8
  %14 = getelementptr inbounds i8, ptr %13, i64 8
  %15 = load ptr, ptr %14, align 8
  %16 = tail call noundef i32 %15(ptr noundef nonnull align 8 dereferenceable(8) %12) #23
  %17 = add i32 %16, %10
  %18 = load ptr, ptr %4, align 8
  %19 = load ptr, ptr %18, align 8
  %20 = getelementptr inbounds i8, ptr %19, i64 40
  %21 = load ptr, ptr %20, align 8
  %22 = tail call noundef i32 %21(ptr noundef nonnull align 8 dereferenceable(8) %18, ptr noundef %2, ptr noundef nonnull %0, i32 noundef 1) #23
  %or.cond.i.i = icmp ult i32 %22, 32
  %spec.select.i.i = select i1 %or.cond.i.i, i32 %22, i32 -1
  %23 = load ptr, ptr %11, align 8
  %24 = load ptr, ptr %23, align 8
  %25 = getelementptr inbounds i8, ptr %24, i64 40
  %26 = load ptr, ptr %25, align 8
  %27 = tail call noundef i32 %26(ptr noundef nonnull align 8 dereferenceable(8) %23, ptr noundef %2, ptr noundef nonnull %0, i32 noundef %10) #23
  %or.cond.i.i12 = icmp ult i32 %27, 32
  %spec.select.i.i13 = select i1 %or.cond.i.i12, i32 %27, i32 -1
  %28 = getelementptr inbounds i8, ptr %0, i64 88
  %29 = load ptr, ptr %28, align 8
  %30 = load ptr, ptr %29, align 8
  %31 = getelementptr inbounds i8, ptr %30, i64 40
  %32 = load ptr, ptr %31, align 8
  %33 = tail call noundef i32 %32(ptr noundef nonnull align 8 dereferenceable(8) %29, ptr noundef %2, ptr noundef nonnull %0, i32 noundef %17) #23
  %or.cond.i.i14 = icmp ult i32 %33, 32
  %spec.select.i.i15 = select i1 %or.cond.i.i14, i32 %33, i32 -1
  tail call void @_ZN17C2_MacroAssembler8udivmodIE8RegisterS0_S0_S0_(ptr noundef nonnull align 8 dereferenceable(40) %1, i32 %spec.select.i.i, i32 %spec.select.i.i13, i32 2, i32 %spec.select.i.i15) #23
  ret void
}